target datalayout = "e-m:e-p270:32:32-p271:32:32-p272:64:64-i64:64-i128:128-f80:128-n8:16:32:64-S128"
target triple = "x86_64-pc-linux-gnu"

%"class.grpc_core::Histogram_100000_20" = type { [20 x i64] }

; Function Attrs: inlinehint mustprogress nounwind uwtable
define linkonce_odr void @_ZN9grpc_core19Histogram_100000_20C2Ev(ptr noundef nonnull align 8 dereferenceable(160) %0) unnamed_addr #3 comdat align 2 {
  %2 = alloca ptr, align 8
  store ptr %0, ptr %2, align 8, !tbaa !8
  %3 = load ptr, ptr %2, align 8
  %4 = getelementptr inbounds nuw %"class.grpc_core::Histogram_100000_20", ptr %3, i32 0, i32 0
  %5 = getelementptr inbounds i64, ptr %4, i64 20
  br label %6

6:                                                ; preds = %6, %1
  %7 = phi ptr [ %4, %1 ], [ %8, %6 ]
  store i64 0, ptr %7, align 8, !tbaa !12
  %8 = getelementptr inbounds i64, ptr %7, i64 1
  %9 = icmp eq ptr %8, %5
  br i1 %9, label %10, label %6

10:                                               ; preds = %6
  ret void
}

; Function Attrs: mustprogress nounwind uwtable
define void @_ZN9grpc_coremiERKNS_19Histogram_100000_20ES2_(ptr dead_on_unwind noalias writable sret(%"class.grpc_core::Histogram_100000_20") align 8 %0, ptr noundef nonnull align 8 dereferenceable(160) %1, ptr noundef nonnull align 8 dereferenceable(160) %2) #0 {
  %4 = alloca ptr, align 8
  %5 = alloca ptr, align 8
  %6 = alloca i32, align 4
  store ptr %1, ptr %4, align 8, !tbaa !8
  store ptr %2, ptr %5, align 8, !tbaa !8
  call void @_ZN9grpc_core19Histogram_100000_20C2Ev(ptr noundef nonnull align 8 dereferenceable(160) %0) #11
  call void @llvm.lifetime.start.p0(i64 4, ptr %6) #11
  store i32 0, ptr %6, align 4, !tbaa !10
  br label %7

7:                                                ; preds = %29, %3
  %8 = load i32, ptr %6, align 4, !tbaa !10
  %9 = icmp slt i32 %8, 20
  br i1 %9, label %11, label %10

10:                                               ; preds = %7
  call void @llvm.lifetime.end.p0(i64 4, ptr %6) #11
  br label %32

11:                                               ; preds = %7
  %12 = load ptr, ptr %4, align 8, !tbaa !8
  %13 = getelementptr inbounds nuw %"class.grpc_core::Histogram_100000_20", ptr %12, i32 0, i32 0
  %14 = load i32, ptr %6, align 4, !tbaa !10
  %15 = sext i32 %14 to i64
  %16 = getelementptr inbounds [20 x i64], ptr %13, i64 0, i64 %15
  %17 = load i64, ptr %16, align 8, !tbaa !12
  %18 = load ptr, ptr %5, align 8, !tbaa !8
  %19 = getelementptr inbounds nuw %"class.grpc_core::Histogram_100000_20", ptr %18, i32 0, i32 0
  %20 = load i32, ptr %6, align 4, !tbaa !10
  %21 = sext i32 %20 to i64
  %22 = getelementptr inbounds [20 x i64], ptr %19, i64 0, i64 %21
  %23 = load i64, ptr %22, align 8, !tbaa !12
  %24 = sub i64 %17, %23
  %25 = getelementptr inbounds nuw %"class.grpc_core::Histogram_100000_20", ptr %0, i32 0, i32 0
  %26 = load i32, ptr %6, align 4, !tbaa !10
  %27 = sext i32 %26 to i64
  %28 = getelementptr inbounds [20 x i64], ptr %25, i64 0, i64 %27
  store i64 %24, ptr %28, align 8, !tbaa !12
  br label %29

29:                                               ; preds = %11
  %30 = load i32, ptr %6, align 4, !tbaa !10
  %31 = add nsw i32 %30, 1
  store i32 %31, ptr %6, align 4, !tbaa !10
  br label %7, !llvm.loop !20

32:                                               ; preds = %10
  ret void
}