; Function Attrs: mustprogress nofree norecurse nosync nounwind memory(argmem: readwrite) uwtable
define void @_ZN9grpc_coremiERKNS_19Histogram_100000_20ES2_(ptr dead_on_unwind noalias writable writeonly sret(%"class.grpc_core::Histogram_100000_20") align 8 captures(none) initializes((0, 160)) %0, ptr noundef nonnull readonly align 8 captures(none) dereferenceable(160) %1, ptr noundef nonnull readonly align 8 captures(none) dereferenceable(160) %2) local_unnamed_addr #2 {
  tail call void @llvm.memset.p0.i64(ptr noundef nonnull align 8 dereferenceable(160) %0, i8 0, i64 160, i1 false), !tbaa !3
  br label %5

4:                                                ; preds = %5
  ret void

5:                                                ; preds = %3, %5
  %indvars.iv = phi i64 [ 0, %3 ], [ %indvars.iv.next, %5 ]
  %6 = getelementptr inbounds nuw [20 x i64], ptr %1, i64 0, i64 %indvars.iv
  %7 = load i64, ptr %6, align 8, !tbaa !3
  %8 = getelementptr inbounds nuw [20 x i64], ptr %2, i64 0, i64 %indvars.iv
  %9 = load i64, ptr %8, align 8, !tbaa !3
  %10 = sub i64 %7, %9
  %11 = getelementptr inbounds nuw [20 x i64], ptr %0, i64 0, i64 %indvars.iv
  store i64 %10, ptr %11, align 8, !tbaa !3
  %indvars.iv.next = add nuw nsw i64 %indvars.iv, 1
  %exitcond.not = icmp eq i64 %indvars.iv.next, 20
  br i1 %exitcond.not, label %4, label %5, !llvm.loop !9
}